target datalayout = "e-m:e-p270:32:32-p271:32:32-p272:64:64-i64:64-i128:128-f80:128-n8:16:32:64-S128"
target triple = "x86_64-pc-linux-gnu"

%struct.asn1_string_st = type { i32, i32, ptr, i64 }

; Function Attrs: nounwind uwtable
define hidden i32 @ASN1_GENERALIZEDTIME_check(ptr noundef %0) #0 {
  %2 = alloca ptr, align 8
  store ptr %0, ptr %2, align 8, !tbaa !11
  %3 = load ptr, ptr %2, align 8, !tbaa !11
  %4 = call i32 @asn1_generalizedtime_to_tm(ptr noundef null, ptr noundef %3)
  ret i32 %4
}

; Function Attrs: nounwind uwtable
define hidden i32 @ASN1_GENERALIZEDTIME_set_string(ptr noundef %0, ptr noundef %1) #0 {
  %3 = alloca i32, align 4
  %4 = alloca ptr, align 8
  %5 = alloca ptr, align 8
  %6 = alloca %struct.asn1_string_st, align 8
  %7 = alloca i32, align 4
  store ptr %0, ptr %4, align 8, !tbaa !11
  store ptr %1, ptr %5, align 8, !tbaa !21
  call void @llvm.lifetime.start.p0(i64 24, ptr %6) #6
  %8 = getelementptr inbounds nuw %struct.asn1_string_st, ptr %6, i32 0, i32 1
  store i32 24, ptr %8, align 4, !tbaa !13
  %9 = load ptr, ptr %5, align 8, !tbaa !21
  %10 = call i64 @strlen(ptr noundef %9) #7
  %11 = trunc i64 %10 to i32
  %12 = getelementptr inbounds nuw %struct.asn1_string_st, ptr %6, i32 0, i32 0
  store i32 %11, ptr %12, align 8, !tbaa !18
  %13 = load ptr, ptr %5, align 8, !tbaa !21
  %14 = getelementptr inbounds nuw %struct.asn1_string_st, ptr %6, i32 0, i32 2
  store ptr %13, ptr %14, align 8, !tbaa !20
  %15 = call i32 @ASN1_GENERALIZEDTIME_check(ptr noundef %6)
  %16 = icmp ne i32 %15, 0
  br i1 %16, label %17, label %32

17:                                               ; preds = %2
  %18 = load ptr, ptr %4, align 8, !tbaa !11
  %19 = icmp ne ptr %18, null
  br i1 %19, label %20, label %31

20:                                               ; preds = %17
  %21 = load ptr, ptr %4, align 8, !tbaa !11
  %22 = load ptr, ptr %5, align 8, !tbaa !21
  %23 = getelementptr inbounds nuw %struct.asn1_string_st, ptr %6, i32 0, i32 0
  %24 = load i32, ptr %23, align 8, !tbaa !18
  %25 = call i32 @ASN1_STRING_set(ptr noundef %21, ptr noundef %22, i32 noundef %24)
  %26 = icmp ne i32 %25, 0
  br i1 %26, label %28, label %27

27:                                               ; preds = %20
  store i32 0, ptr %3, align 4
  store i32 1, ptr %7, align 4
  br label %33

28:                                               ; preds = %20
  %29 = load ptr, ptr %4, align 8, !tbaa !11
  %30 = getelementptr inbounds nuw %struct.asn1_string_st, ptr %29, i32 0, i32 1
  store i32 24, ptr %30, align 4, !tbaa !13
  br label %31

31:                                               ; preds = %28, %17
  store i32 1, ptr %3, align 4
  store i32 1, ptr %7, align 4
  br label %33

32:                                               ; preds = %2
  store i32 0, ptr %3, align 4
  store i32 1, ptr %7, align 4
  br label %33

33:                                               ; preds = %32, %31, %27
  call void @llvm.lifetime.end.p0(i64 24, ptr %6) #6
  %34 = load i32, ptr %3, align 4
  ret i32 %34
}