; Function Attrs: nounwind uwtable
define hidden range(i32 0, 2) i32 @ASN1_GENERALIZEDTIME_set_string(ptr noundef %0, ptr noundef %1) local_unnamed_addr #0 {
  %3 = alloca %struct.asn1_string_st, align 8
  call void @llvm.lifetime.start.p0(i64 24, ptr nonnull %3) #6
  %4 = getelementptr inbounds nuw i8, ptr %3, i64 4
  store i32 24, ptr %4, align 4, !tbaa !6
  %5 = tail call i64 @strlen(ptr noundef nonnull dereferenceable(1) %1) #7
  %6 = trunc i64 %5 to i32
  store i32 %6, ptr %3, align 8, !tbaa !14
  %7 = getelementptr inbounds nuw i8, ptr %3, i64 8
  store ptr %1, ptr %7, align 8, !tbaa !15
  %8 = call range(i32 0, 2) i32 @asn1_generalizedtime_to_tm(ptr noundef null, ptr noundef nonnull readonly %3)
  %.not = icmp eq i32 %8, 0
  br i1 %.not, label %14, label %9

9:                                                ; preds = %2
  %.not7 = icmp eq ptr %0, null
  br i1 %.not7, label %14, label %10

10:                                               ; preds = %9
  %11 = tail call i32 @ASN1_STRING_set(ptr noundef nonnull %0, ptr noundef nonnull %1, i32 noundef %6) #6
  %.not8 = icmp eq i32 %11, 0
  br i1 %.not8, label %14, label %12

12:                                               ; preds = %10
  %13 = getelementptr inbounds nuw i8, ptr %0, i64 4
  store i32 24, ptr %13, align 4, !tbaa !6
  br label %14

14:                                               ; preds = %2, %9, %12, %10
  %.0 = phi i32 [ 0, %10 ], [ 1, %12 ], [ 1, %9 ], [ 0, %2 ]
  call void @llvm.lifetime.end.p0(i64 24, ptr nonnull %3) #6
  ret i32 %.0
}